; ModuleID = '60/293.c'
source_filename = "60/293.c"
target datalayout = "e-m:e-p270:32:32-p271:32:32-p272:64:64-i64:64-f80:128-n8:16:32:64-S128"
target triple = "x86_64-pc-linux-gnu"

@.str = private unnamed_addr constant [3 x i8] c"%d\00", align 1
@.str.1 = private unnamed_addr constant [7 x i8] c"%d %d\0A\00", align 1
@.str.2 = private unnamed_addr constant [6 x i8] c"empty\00", align 1

; Function Attrs: noinline nounwind uwtable
define dso_local i32 @main() #0 {
  %1 = alloca i32, align 4
  %2 = alloca i32, align 4
  %3 = alloca i32, align 4
  %4 = alloca i32, align 4
  %5 = alloca i32, align 4
  %6 = alloca i32, align 4
  store i32 0, i32* %1, align 4
  %7 = call i32 (i8*, ...) @__isoc99_scanf(i8* getelementptr inbounds ([3 x i8], [3 x i8]* @.str, i64 0, i64 0), i32* %2)
  store i32 0, i32* %3, align 4
  store i32 3, i32* %4, align 4
  br label %8

8:                                                ; preds = %63, %0
  %9 = load i32, i32* %4, align 4
  %10 = load i32, i32* %2, align 4
  %11 = sub nsw i32 %10, 2
  %12 = icmp sle i32 %9, %11
  br i1 %12, label %13, label %66

13:                                               ; preds = %8
  store i32 0, i32* %6, align 4
  store i32 2, i32* %5, align 4
  br label %14

14:                                               ; preds = %48, %13
  %15 = load i32, i32* %5, align 4
  %16 = load i32, i32* %4, align 4
  %17 = sub nsw i32 %16, 1
  %18 = icmp sle i32 %15, %17
  br i1 %18, label %19, label %51

19:                                               ; preds = %14
  %20 = load i32, i32* %4, align 4
  %21 = load i32, i32* %5, align 4
  %22 = srem i32 %20, %21
  %23 = icmp eq i32 %22, 0
  br i1 %23, label %30, label %24

24:                                               ; preds = %19
  %25 = load i32, i32* %4, align 4
  %26 = add nsw i32 %25, 2
  %27 = load i32, i32* %5, align 4
  %28 = srem i32 %26, %27
  %29 = icmp eq i32 %28, 0
  br i1 %29, label %30, label %31

30:                                               ; preds = %24, %19
  br label %51

31:                                               ; preds = %24
  %32 = load i32, i32* %4, align 4
  %33 = add nsw i32 %32, 2
  %34 = load i32, i32* %4, align 4
  %35 = srem i32 %33, %34
  %36 = icmp eq i32 %35, 0
  br i1 %36, label %44, label %37

37:                                               ; preds = %31
  %38 = load i32, i32* %4, align 4
  %39 = add nsw i32 %38, 2
  %40 = load i32, i32* %4, align 4
  %41 = add nsw i32 %40, 1
  %42 = srem i32 %39, %41
  %43 = icmp eq i32 %42, 0
  br i1 %43, label %44, label %45

44:                                               ; preds = %37, %31
  br label %51

45:                                               ; preds = %37
  %46 = load i32, i32* %6, align 4
  %47 = add nsw i32 %46, 1
  store i32 %47, i32* %6, align 4
  br label %48

48:                                               ; preds = %45
  %49 = load i32, i32* %5, align 4
  %50 = add nsw i32 %49, 1
  store i32 %50, i32* %5, align 4
  br label %14

51:                                               ; preds = %44, %30, %14
  %52 = load i32, i32* %6, align 4
  %53 = load i32, i32* %4, align 4
  %54 = sub nsw i32 %53, 2
  %55 = icmp eq i32 %52, %54
  br i1 %55, label %56, label %63

56:                                               ; preds = %51
  %57 = load i32, i32* %4, align 4
  %58 = load i32, i32* %4, align 4
  %59 = add nsw i32 %58, 2
  %60 = call i32 (i8*, ...) @printf(i8* getelementptr inbounds ([7 x i8], [7 x i8]* @.str.1, i64 0, i64 0), i32 %57, i32 %59)
  %61 = load i32, i32* %3, align 4
  %62 = add nsw i32 %61, 1
  store i32 %62, i32* %3, align 4
  br label %63

63:                                               ; preds = %56, %51
  %64 = load i32, i32* %4, align 4
  %65 = add nsw i32 %64, 1
  store i32 %65, i32* %4, align 4
  br label %8

66:                                               ; preds = %8
  %67 = load i32, i32* %3, align 4
  %68 = icmp eq i32 %67, 0
  br i1 %68, label %69, label %71

69:                                               ; preds = %66
  %70 = call i32 (i8*, ...) @printf(i8* getelementptr inbounds ([6 x i8], [6 x i8]* @.str.2, i64 0, i64 0))
  br label %71

71:                                               ; preds = %69, %66
  %72 = call i32 @getchar()
  %73 = call i32 @getchar()
  %74 = load i32, i32* %1, align 4
  ret i32 %74
}

declare dso_local i32 @__isoc99_scanf(i8*, ...) #1

declare dso_local i32 @printf(i8*, ...) #1

declare dso_local i32 @getchar() #1


!llvm.module.flags = !{!0}
!llvm.ident = !{!1}

!0 = !{i32 1, !"wchar_size", i32 4}
!1 = !{!"clang version 10.0.0-4ubuntu1 "}
